(dp0
S'fifa.com'
p1
(dp2
S'fifa'
p3
I698000
sS'squats'
p4
I10
sS'hospital patients'
p5
I44
sS'laettner'
p6
I0
sS'knicks'
p7
I9
sS'card drivers'
p8
I45
sS'audio file'
p9
I12
sS'acupuncture'
p10
I1
sS'soccer'
p11
I488000
sS'game league'
p12
I302000
sS'hiv'
p13
I2130
sS'rebounds'
p14
I40
sS'lazio'
p15
I4130
sS'eating fat'
p16
I40
sS'teams'
p17
I447000
sS'cholesterol'
p18
I8
sS'ball team'
p19
I428000
sS'card pc'
p20
I121000
sS'module'
p21
I85400
sS'shaq '
p22
I9
sS'medical patient'
p23
I9860
sS'aids'
p24
I4620
sS'nba'
p25
I51800
sS'aerobic'
p26
I20
sS'bundesliga'
p27
I53500
sS'multimedia'
p28
I2500
sS'fat muscle'
p29
I31
sS'treadmill'
p30
I14
sS'nurse'
p31
I6370
sS'fitness'
p32
I5010
sS'laker'
p33
I2
sS'calories fat'
p34
I8
sS'leeds'
p35
I1760
sS'doctor medical'
p36
I7340
sS'shaquille'
p37
I89
sS'ball league'
p38
I326000
sS'health nutritional'
p39
I3170
sS'buffer code'
p40
I1
sS'ncaa'
p41
I74
sS'wnba'
p42
I7
sS'sabonis'
p43
I0
sS'insulin'
p44
I3
sS'health medicine'
p45
I14900
sS'shareware'
p46
I0
sS'agp card'
p47
I0
sS'cancer'
p48
I2780
sS'carb carbs'
p49
I1
sS'walkers'
p50
I11
sS'kobe'
p51
I2310
sS'championship team'
p52
I298000
sS'patients treatment'
p53
I39
sS'avi file'
p54
I0
sS'perl'
p55
I27
sS'bios'
p56
I26
sS'array code'
p57
I10
sS'dunks'
p58
I1
sS'diabetes'
p59
I87
sS'pc windows'
p60
I50
sS'liverpool'
p61
I14400
sS'avg nba'
p62
I25
sS'cardiology'
p63
I13
sS'club league'
p64
I385000
sS'blazers'
p65
I3690
sS'avg league'
p66
I23
sS'applet code'
p67
I1
sS'bayern'
p68
I22400
sS'blazers game'
p69
I4790
sS'fans football'
p70
I701000
sS'mls'
p71
I52800
sS'pacers'
p72
I10
sS'vb'
p73
I92
sS'doctor health'
p74
I13100
sS'application windows'
p75
I98800
sS'medical treatment'
p76
I12300
sS'aerobics'
p77
I1
sS'ball referee'
p78
I255000
sS'bytes code'
p79
I0
sS'diet'
p80
I14000
sS'hospital medical'
p81
I13200
sS'hooliganism'
p82
I22
sS'java'
p83
I10300
sS'cpu'
p84
I28
sS'premiership'
p85
I40200
sS'juventus'
p86
I11600
sS'card graphics'
p87
I3400
sS'uefa'
p88
I219000
ssS'health.com'
p89
(dp90
S'fat '
p91
I383000
sS'squats'
p92
I16300
sS'challenge walk '
p93
I28800
sS'workout '
p94
I400000
sS'hospital patients'
p95
I34100
sS'card drivers'
p96
I10
sS'audio file'
p97
I3
sS'acupuncture'
p98
I8950
sS'soccer'
p99
I13400
sS'game league'
p100
I51
sS'hiv'
p101
I11900
sS'aspirin cholesterol '
p102
I15300
sS'acid diets '
p103
I95300
sS'eating fat'
p104
I235000
sS'radiation treatment '
p105
I12800
sS'teams'
p106
I2940
sS'cholesterol'
p107
I397000
sS'exercise weight '
p108
I236000
sS'ball team'
p109
I86
sS'card pc'
p110
I33
sS'module'
p111
I37
sS'medical patient'
p112
I124000
sS'bodybuilding protein '
p113
I39400
sS'aids'
p114
I24500
sS'nba'
p115
I31
sS'aerobic'
p116
I17500
sS'multimedia'
p117
I7
sS'fat muscle'
p118
I100000
sS'eating weight '
p119
I244000
sS'treadmill'
p120
I16900
sS'nurse'
p121
I12200
sS'fitness'
p122
I394000
sS'laker'
p123
I0
sS'calories fat'
p124
I176000
sS'doctor medical'
p125
I178000
sS'ball league'
p126
I13
sS'health nutritional'
p127
I231000
sS'buffer code'
p128
I1
sS'ncaa'
p129
I22
sS'wnba'
p130
I4
sS'blood heart '
p131
I87400
sS'insulin'
p132
I10800
sS'health medicine'
p133
I240000
sS'shareware'
p134
I0
sS'agp card'
p135
I0
sS'hiv '
p136
I11900
sS'cancer'
p137
I395000
sS'carb carbs'
p138
I61700
sS'cardiology '
p139
I2630
sS'walkers'
p140
I72
sS'exercise protein '
p141
I65300
sS'championship team'
p142
I13
sS'patients treatment'
p143
I125000
sS'cancer '
p144
I395000
sS'avi file'
p145
I0
sS'perl'
p146
I6
sS'bios'
p147
I5
sS'aids '
p148
I24500
sS'array code'
p149
I7
sS'pc windows'
p150
I10
sS'calories protein '
p151
I83700
sS'dental '
p152
I15200
sS'avg nba'
p153
I5
sS'cardiology'
p154
I2630
sS'blood insulin '
p155
I31700
sS'aerobic '
p156
I17500
sS'club league'
p157
I6
sS'avg league'
p158
I0
sS'heart surgery '
p159
I42000
sS'applet code'
p160
I0
sS'walking '
p161
I17400
sS'blazers game'
p162
I1
sS'diabetes '
p163
I396000
sS'dairy milk '
p164
I41600
sS'fans football'
p165
I20900
sS'pacers'
p166
I0
sS'fitness '
p167
I394000
sS'vb'
p168
I4
sS'calories weight '
p169
I181000
sS'aspirin cardiologist '
p170
I13200
sS'cholesterol lipitor '
p171
I17900
sS'doctor health'
p172
I176000
sS'eating protein '
p173
I164000
sS'medical treatment'
p174
I445000
sS'aerobics'
p175
I14200
sS'ball referee'
p176
I16
sS'bytes code'
p177
I2
sS'cholesterol doctor '
p178
I178000
sS'diet'
p179
I399000
sS'hospital medical'
p180
I81500
sS'diabetes'
p181
I396000
sS'application windows'
p182
I16
sS'java'
p183
I68
sS'card graphics'
p184
I6
sS'cpu'
p185
I1
ss.