(dp0
S'diabetes.org'
p1
(dp2
S'fat '
p3
I89400
sS'squats'
p4
I68
sS'challenge walk '
p5
I67300
sS'workout '
p6
I3620
sS'hospital patients'
p7
I56600
sS'hiv '
p8
I25000
sS'audio file'
p9
I11200
sS'acupuncture'
p10
I72
sS'soccer'
p11
I1850
sS'game league'
p12
I1990
sS'hiv'
p13
I25000
sS'aspirin cholesterol '
p14
I21200
sS'acid diets '
p15
I11000
sS'eating fat'
p16
I131000
sS'radiation treatment '
p17
I3760
sS'teams'
p18
I4740
sS'fitness'
p19
I82400
sS'exercise weight '
p20
I135000
sS'ball team'
p21
I100
sS'eating protein '
p22
I45500
sS'card pc'
p23
I7600
sS'module'
p24
I75
sS'medical patient'
p25
I161000
sS'bodybuilding protein '
p26
I40
sS'aids'
p27
I14400
sS'nba'
p28
I40
sS'aerobic'
p29
I6690
sS'multimedia'
p30
I42
sS'fat muscle'
p31
I7920
sS'eating weight '
p32
I137000
sS'treadmill'
p33
I3580
sS'nurse'
p34
I10100
sS'cholesterol'
p35
I32500
sS'laker'
p36
I5
sS'calories fat'
p37
I128000
sS'doctor medical'
p38
I88200
sS'patients treatment'
p39
I139000
sS'health nutritional'
p40
I97600
sS'buffer code'
p41
I0
sS'ncaa'
p42
I8
sS'wnba'
p43
I16
sS'blood heart '
p44
I125000
sS'insulin'
p45
I95700
sS'health medicine'
p46
I121000
sS'shareware'
p47
I0
sS'agp card'
p48
I0
sS'card drivers'
p49
I30700
sS'cancer'
p50
I20000
sS'carb carbs'
p51
I37800
sS'cardiology '
p52
I4770
sS'walkers'
p53
I3440
sS'exercise protein '
p54
I38200
sS'ball league'
p55
I16
sS'championship team'
p56
I23
sS'java'
p57
I80
sS'cancer '
p58
I20000
sS'avi file'
p59
I0
sS'perl'
p60
I6
sS'bios'
p61
I16
sS'aids '
p62
I14400
sS'club league'
p63
I26
sS'pc windows'
p64
I75
sS'calories protein '
p65
I43400
sS'dental '
p66
I49900
sS'avg nba'
p67
I5
sS'cardiology'
p68
I4770
sS'blood insulin '
p69
I59700
sS'array code'
p70
I5
sS'avg league'
p71
I1
sS'heart surgery '
p72
I35800
sS'applet code'
p73
I0
sS'walking '
p74
I10800
sS'blazers game'
p75
I3
sS'diabetes '
p76
I302000
sS'dairy milk '
p77
I20800
sS'fans football'
p78
I28
sS'pacers'
p79
I8
sS'fitness '
p80
I82100
sS'vb'
p81
I19
sS'calories weight '
p82
I125000
sS'aspirin cardiologist '
p83
I21100
sS'cholesterol lipitor '
p84
I14100
sS'doctor health'
p85
I140000
sS'application windows'
p86
I47
sS'medical treatment'
p87
I104000
sS'aerobics'
p88
I2300
sS'ball referee'
p89
I7
sS'bytes code'
p90
I0
sS'cholesterol doctor '
p91
I33700
sS'diet'
p92
I112000
sS'hospital medical'
p93
I128000
sS'diabetes'
p94
I303000
sS'aerobic '
p95
I6690
sS'card graphics'
p96
I47
sS'cpu'
p97
I7
ssS'fifa.com'
p98
(dp99
S'fifa'
p100
I698000
sS'squats'
p101
I10
sS'hospital patients'
p102
I44
sS'laettner'
p103
I0
sS'knicks'
p104
I9
sS'card drivers'
p105
I45
sS'audio file'
p106
I12
sS'acupuncture'
p107
I1
sS'soccer'
p108
I488000
sS'game league'
p109
I302000
sS'hiv'
p110
I2130
sS'rebounds'
p111
I40
sS'lazio'
p112
I4130
sS'eating fat'
p113
I40
sS'teams'
p114
I447000
sS'fitness'
<<<<<<< Updated upstream
p18
=======
p115
>>>>>>> Stashed changes
I5010
sS'ball team'
p116
I428000
sS'card pc'
p117
I121000
sS'module'
p118
I85400
sS'shaq '
p119
I9
sS'medical patient'
p120
I9860
sS'aids'
p121
I4620
sS'nba'
p122
I51800
sS'aerobic'
p123
I20
sS'bundesliga'
p124
I53500
sS'multimedia'
p125
I2500
sS'fat muscle'
p126
I31
sS'treadmill'
p127
I14
sS'nurse'
p128
I6370
sS'cholesterol'
<<<<<<< Updated upstream
p32
=======
p129
>>>>>>> Stashed changes
I8
sS'laker'
p130
I2
sS'calories fat'
p131
I8
sS'leeds'
p132
I1760
sS'doctor medical'
p133
I7340
sS'shaquille'
p134
I89
sS'ball league'
p135
I326000
sS'health nutritional'
p136
I3170
sS'buffer code'
p137
I1
sS'ncaa'
p138
I74
sS'wnba'
p139
I7
sS'sabonis'
p140
I0
sS'insulin'
p141
I3
sS'health medicine'
p142
I14900
sS'shareware'
p143
I0
sS'agp card'
p144
I0
sS'cancer'
p145
I2780
sS'carb carbs'
p146
I1
sS'walkers'
p147
I11
sS'kobe'
p148
I2310
sS'championship team'
p149
I298000
sS'patients treatment'
p150
I39
sS'avi file'
p151
I0
sS'perl'
p152
I27
sS'bios'
p153
I26
sS'club league'
<<<<<<< Updated upstream
p57
=======
p154
>>>>>>> Stashed changes
I385000
sS'dunks'
p155
I1
sS'diabetes'
p156
I87
sS'pc windows'
p157
I50
sS'liverpool'
p158
I14400
sS'avg nba'
p159
I25
sS'cardiology'
p160
I13
sS'array code'
<<<<<<< Updated upstream
p64
=======
p161
>>>>>>> Stashed changes
I10
sS'blazers'
p162
I3690
sS'avg league'
p163
I23
sS'applet code'
p164
I1
sS'bayern'
p165
I22400
sS'blazers game'
p166
I4790
sS'fans football'
p167
I701000
sS'mls'
p168
I52800
sS'pacers'
p169
I10
sS'vb'
p170
I92
sS'doctor health'
p171
I13100
sS'application windows'
p172
I98800
sS'medical treatment'
p173
I12300
sS'aerobics'
p174
I1
sS'ball referee'
p175
I255000
sS'bytes code'
p176
I0
sS'diet'
p177
I14000
sS'hospital medical'
p178
I13200
sS'hooliganism'
p179
I22
sS'java'
p180
I10300
sS'cpu'
p181
I28
sS'premiership'
p182
I40200
sS'juventus'
p183
I11600
sS'card graphics'
p184
I3400
sS'uefa'
p185
I219000
ssS'health.com'
p186
(dp187
S'fat '
p188
I383000
sS'squats'
p189
I16300
sS'challenge walk '
p190
I28800
sS'workout '
p191
I400000
sS'hospital patients'
p192
I34100
sS'card drivers'
p193
I10
sS'audio file'
p194
I3
sS'acupuncture'
p195
I8950
sS'soccer'
p196
I13400
sS'game league'
p197
I51
sS'application windows'
<<<<<<< Updated upstream
p101
I16
sS'hiv'
p102
I11900
sS'aspirin cholesterol '
p103
I15300
sS'acid diets '
p104
I95300
sS'eating fat'
p105
I235000
sS'radiation treatment '
p106
I12800
sS'teams'
p107
I2940
sS'fitness'
p108
I394000
sS'exercise weight '
p109
I236000
sS'ball team'
p110
I86
sS'card pc'
p111
I33
sS'module'
p112
I37
sS'medical patient'
p113
I124000
sS'bodybuilding protein '
p114
I39400
sS'aids'
p115
I24500
sS'nba'
p116
I31
sS'aerobic'
p117
I17500
sS'multimedia'
p118
I7
sS'fat muscle'
p119
I100000
sS'eating weight '
p120
I244000
sS'treadmill'
p121
I16900
sS'nurse'
p122
I12200
sS'cholesterol'
p123
I397000
sS'laker'
p124
I0
sS'calories fat'
p125
I176000
sS'doctor medical'
p126
I178000
sS'ball league'
p127
I13
sS'health nutritional'
p128
I231000
sS'buffer code'
p129
I1
sS'ncaa'
p130
I22
sS'wnba'
p131
I4
sS'blood heart '
p132
I87400
sS'insulin'
p133
I10800
sS'health medicine'
p134
I240000
sS'shareware'
p135
I0
sS'agp card'
p136
I0
sS'hiv '
p137
I11900
sS'cancer'
p138
I395000
sS'carb carbs'
p139
I61700
sS'cardiology '
p140
I2630
sS'walkers'
p141
I72
sS'exercise protein '
p142
I65300
sS'championship team'
p143
I13
sS'patients treatment'
p144
I125000
sS'cancer '
p145
I395000
sS'avi file'
p146
I0
sS'perl'
p147
I6
sS'bios'
p148
I5
sS'aids '
p149
I24500
sS'array code'
p150
I7
sS'pc windows'
p151
I10
sS'calories protein '
p152
I83700
sS'dental '
p153
I15200
sS'avg nba'
p154
I5
sS'cardiology'
p155
I2630
sS'blood insulin '
p156
=======
p198
I16
sS'hiv'
p199
I11900
sS'aspirin cholesterol '
p200
I15300
sS'acid diets '
p201
I95300
sS'eating fat'
p202
I235000
sS'radiation treatment '
p203
I12800
sS'teams'
p204
I2940
sS'fitness'
p205
I394000
sS'exercise weight '
p206
I236000
sS'ball team'
p207
I86
sS'card pc'
p208
I33
sS'module'
p209
I37
sS'medical patient'
p210
I124000
sS'bodybuilding protein '
p211
I39400
sS'aids'
p212
I24500
sS'nba'
p213
I31
sS'aerobic'
p214
I17500
sS'multimedia'
p215
I7
sS'fat muscle'
p216
I100000
sS'eating weight '
p217
I244000
sS'treadmill'
p218
I16900
sS'nurse'
p219
I12200
sS'cholesterol'
p220
I397000
sS'laker'
p221
I0
sS'calories fat'
p222
I176000
sS'doctor medical'
p223
I178000
sS'ball league'
p224
I13
sS'health nutritional'
p225
I231000
sS'buffer code'
p226
I1
sS'ncaa'
p227
I22
sS'wnba'
p228
I4
sS'blood heart '
p229
I87400
sS'insulin'
p230
I10800
sS'health medicine'
p231
I240000
sS'shareware'
p232
I0
sS'agp card'
p233
I0
sS'hiv '
p234
I11900
sS'cancer'
p235
I395000
sS'carb carbs'
p236
I61700
sS'cardiology '
p237
I2630
sS'walkers'
p238
I72
sS'exercise protein '
p239
I65300
sS'championship team'
p240
I13
sS'patients treatment'
p241
I125000
sS'cancer '
p242
I395000
sS'avi file'
p243
I0
sS'perl'
p244
I6
sS'bios'
p245
I5
sS'aids '
p246
I24500
sS'array code'
p247
I7
sS'pc windows'
p248
I10
sS'calories protein '
p249
I83700
sS'dental '
p250
I15200
sS'avg nba'
p251
I5
sS'cardiology'
p252
I2630
sS'blood insulin '
p253
>>>>>>> Stashed changes
I31700
sS'club league'
p254
I6
sS'avg league'
p255
I0
sS'aerobic '
<<<<<<< Updated upstream
p159
=======
p256
>>>>>>> Stashed changes
I17500
sS'applet code'
p257
I0
sS'walking '
p258
I17400
sS'blazers game'
p259
I1
sS'diabetes '
p260
I396000
sS'dairy milk '
p261
I41600
sS'fans football'
p262
I20900
sS'pacers'
p263
I0
sS'fitness '
p264
I394000
sS'vb'
p265
I4
sS'calories weight '
p266
I181000
sS'aspirin cardiologist '
p267
I13200
sS'cholesterol lipitor '
p268
I17900
sS'doctor health'
p269
I176000
sS'eating protein '
p270
I164000
sS'medical treatment'
p271
I445000
sS'aerobics'
p272
I14200
sS'ball referee'
p273
I16
sS'bytes code'
p274
I2
sS'cholesterol doctor '
p275
I178000
sS'diet'
p276
I399000
sS'hospital medical'
p277
I81500
sS'diabetes'
p278
I396000
sS'heart surgery '
<<<<<<< Updated upstream
p182
=======
p279
>>>>>>> Stashed changes
I42000
sS'java'
p280
I68
sS'card graphics'
p281
I6
sS'cpu'
p282
I1
ss.