(dp0
S'yahoo.com'
p1
(dp2
S'vb'
p3
I160000
sS'ball team'
p4
I830000
sS'cancer'
p5
I558000
sS'squats'
p6
I51900
sS'patients treatment'
p7
I230000
sS'carb carbs'
p8
I50300
sS'card pc'
p9
I1550000
sS'walkers'
p10
I34900
sS'card drivers'
p11
I786000
sS'medical patient'
p12
I643000
sS'hospital patients'
p13
I260000
sS'aids'
p14
I144000
sS'nba'
p15
I1920000
sS'array code'
p16
I31200
sS'championship team'
p17
I320000
sS'doctor health'
p18
I1920000
sS'hiv'
p19
I126000
sS'module'
p20
I136000
sS'eating fat'
p21
I180000
sS'aerobic'
p22
I31500
sS'multimedia'
p23
I115000
sS'fat muscle'
p24
I77900
sS'perl'
p25
I15100
sS'bios'
p26
I63600
sS'audio file'
p27
I208000
sS'aerobics'
p28
I28500
sS'treadmill'
p29
I57000
sS'acupuncture'
p30
I53700
sS'avi file'
p31
I311000
sS'nurse'
p32
I255000
sS'soccer'
p33
I2550000
sS'pc windows'
p34
I1310000
sS'game league'
p35
I1940000
sS'ball referee'
p36
I268000
sS'bytes code'
p37
I8500
sS'avg nba'
p38
I603000
sS'cardiology'
p39
I36000
sS'fitness'
p40
I785000
sS'laker'
p41
I22700
sS'calories fat'
p42
I87200
sS'diet'
p43
I340000
sS'club league'
p44
I349000
sS'avg league'
p45
I261000
sS'doctor medical'
p46
I563000
sS'ball league'
p47
I1110000
sS'health nutritional'
p48
I651000
sS'hospital medical'
p49
I1280000
sS'diabetes'
p50
I195000
sS'applet code'
p51
I15000
sS'application windows'
p52
I1200000
sS'java'
p53
I237000
sS'blazers game'
p54
I276000
sS'buffer code'
p55
I7690
sS'ncaa'
p56
I443000
sS'wnba'
p57
I230000
sS'teams'
p58
I1620000
sS'fans football'
p59
I605000
sS'medical treatment'
p60
I361000
sS'pacers'
p61
I64900
sS'insulin'
p62
I108000
sS'cholesterol'
p63
I122000
sS'card graphics'
p64
I258000
sS'health medicine'
p65
I1870000
sS'shareware'
p66
I11600
sS'cpu'
p67
I153000
sS'agp card'
p68
I6570
ssS'diabetes.org'
p69
(dp70
S'fat '
p71
I89400
sS'squats'
p72
I68
sS'challenge walk '
p73
I67300
sS'workout '
p74
I3620
sS'hospital patients'
p75
I56600
sS'card drivers'
p76
I30700
sS'audio file'
p77
I11200
sS'acupuncture'
p78
I72
sS'soccer'
p79
I1850
sS'game league'
p80
I1990
sS'application windows'
p81
I47
sS'hiv'
p82
I25000
sS'aspirin cholesterol '
p83
I21200
sS'acid diets '
p84
I11000
sS'eating fat'
p85
I131000
sS'radiation treatment '
p86
I3760
sS'teams'
p87
I4740
sS'fitness'
p88
I82400
sS'exercise weight '
p89
I135000
sS'ball team'
p90
I100
sS'card pc'
p91
I7600
sS'module'
p92
I75
sS'medical patient'
p93
I161000
sS'bodybuilding protein '
p94
I40
sS'aids'
p95
I14400
sS'nba'
p96
I40
sS'aerobic'
p97
I6690
sS'multimedia'
p98
I42
sS'fat muscle'
p99
I7920
sS'eating weight '
p100
I137000
sS'treadmill'
p101
I3580
sS'nurse'
p102
I10100
sS'cholesterol'
p103
I32500
sS'laker'
p104
I5
sS'calories fat'
p105
I128000
sS'doctor medical'
p106
I88200
sS'ball league'
p107
I16
sS'health nutritional'
p108
I97600
sS'buffer code'
p109
I0
sS'ncaa'
p110
I8
sS'wnba'
p111
I16
sS'blood heart '
p112
I125000
sS'insulin'
p113
I95700
sS'health medicine'
p114
I121000
sS'shareware'
p115
I0
sS'agp card'
p116
I0
sS'hiv '
p117
I25000
sS'cancer'
p118
I20000
sS'carb carbs'
p119
I37800
sS'cardiology '
p120
I4770
sS'walkers'
p121
I3440
sS'exercise protein '
p122
I38200
sS'championship team'
p123
I23
sS'patients treatment'
p124
I139000
sS'cancer '
p125
I20000
sS'avi file'
p126
I0
sS'perl'
p127
I6
sS'bios'
p128
I16
sS'aids '
p129
I14400
sS'array code'
p130
I5
sS'pc windows'
p131
I75
sS'calories protein '
p132
I43400
sS'dental '
p133
I49900
sS'avg nba'
p134
I5
sS'cardiology'
p135
I4770
sS'blood insulin '
p136
I59700
sS'club league'
p137
I26
sS'avg league'
p138
I1
sS'aerobic '
p139
I6690
sS'applet code'
p140
I0
sS'walking '
p141
I10800
sS'blazers game'
p142
I3
sS'diabetes '
p143
I302000
sS'dairy milk '
p144
I20800
sS'fans football'
p145
I28
sS'pacers'
p146
I8
sS'fitness '
p147
I82100
sS'vb'
p148
I19
sS'calories weight '
p149
I125000
sS'aspirin cardiologist '
p150
I21100
sS'cholesterol lipitor '
p151
I14100
sS'doctor health'
p152
I140000
sS'eating protein '
p153
I45500
sS'medical treatment'
p154
I104000
sS'aerobics'
p155
I2300
sS'ball referee'
p156
I7
sS'bytes code'
p157
I0
sS'cholesterol doctor '
p158
I33700
sS'diet'
p159
I112000
sS'hospital medical'
p160
I128000
sS'diabetes'
p161
I303000
sS'heart surgery '
p162
I35800
sS'java'
p163
I80
sS'card graphics'
p164
I47
sS'cpu'
p165
I7
ssS'fifa.com'
p166
(dp167
S'fifa'
p168
I698000
sS'squats'
p169
I10
sS'hospital patients'
p170
I44
sS'laettner'
p171
I0
sS'knicks'
p172
I9
sS'card drivers'
p173
I45
sS'audio file'
p174
I12
sS'acupuncture'
p175
I1
sS'soccer'
p176
I488000
sS'game league'
p177
I302000
sS'hiv'
p178
I2130
sS'rebounds'
p179
I40
sS'lazio'
p180
I4130
sS'eating fat'
p181
I40
sS'teams'
p182
I447000
sS'fitness'
p183
I5010
sS'ball team'
p184
I428000
sS'card pc'
p185
I121000
sS'module'
p186
I85400
sS'shaq '
p187
I9
sS'medical patient'
p188
I9860
sS'aids'
p189
I4620
sS'nba'
p190
I51800
sS'aerobic'
p191
I20
sS'bundesliga'
p192
I53500
sS'multimedia'
p193
I2500
sS'fat muscle'
p194
I31
sS'treadmill'
p195
I14
sS'nurse'
p196
I6370
sS'cholesterol'
p197
I8
sS'laker'
p198
I2
sS'calories fat'
p199
I8
sS'leeds'
p200
I1760
sS'doctor medical'
p201
I7340
sS'shaquille'
p202
I89
sS'ball league'
p203
I326000
sS'health nutritional'
p204
I3170
sS'buffer code'
p205
I1
sS'ncaa'
p206
I74
sS'wnba'
p207
I7
sS'sabonis'
p208
I0
sS'insulin'
p209
I3
sS'health medicine'
p210
I14900
sS'shareware'
p211
I0
sS'agp card'
p212
I0
sS'cancer'
p213
I2780
sS'carb carbs'
p214
I1
sS'walkers'
p215
I11
sS'kobe'
p216
I2310
sS'championship team'
p217
I298000
sS'patients treatment'
p218
I39
sS'avi file'
p219
I0
sS'perl'
p220
I27
sS'bios'
p221
I26
sS'club league'
p222
I385000
sS'dunks'
p223
I1
sS'diabetes'
p224
I87
sS'pc windows'
p225
I50
sS'liverpool'
p226
I14400
sS'avg nba'
p227
I25
sS'cardiology'
p228
I13
sS'array code'
p229
I10
sS'blazers'
p230
I3690
sS'avg league'
p231
I23
sS'applet code'
p232
I1
sS'bayern'
p233
I22400
sS'blazers game'
p234
I4790
sS'fans football'
p235
I701000
sS'mls'
p236
I52800
sS'pacers'
p237
I10
sS'vb'
p238
I92
sS'doctor health'
p239
I13100
sS'application windows'
p240
I98800
sS'medical treatment'
p241
I12300
sS'aerobics'
p242
I1
sS'ball referee'
p243
I255000
sS'bytes code'
p244
I0
sS'diet'
p245
I14000
sS'hospital medical'
p246
I13200
sS'hooliganism'
p247
I22
sS'java'
p248
I10300
sS'cpu'
p249
I28
sS'premiership'
p250
I40200
sS'juventus'
p251
I11600
sS'card graphics'
p252
I3400
sS'uefa'
p253
I219000
ssS'health.com'
p254
(dp255
S'fat '
p256
I383000
sS'squats'
p257
I16300
sS'challenge walk '
p258
I28800
sS'workout '
p259
I400000
sS'hospital patients'
p260
I34100
sS'card drivers'
p261
I10
sS'audio file'
p262
I3
sS'acupuncture'
p263
I8950
sS'soccer'
p264
I13400
sS'game league'
p265
I51
sS'hiv'
p266
I11900
sS'aspirin cholesterol '
p267
I15300
sS'acid diets '
p268
I95300
sS'eating fat'
p269
I235000
sS'radiation treatment '
p270
I12800
sS'teams'
p271
I2940
sS'fitness'
p272
I394000
sS'exercise weight '
p273
I236000
sS'ball team'
p274
I86
sS'eating protein '
p275
I164000
sS'card pc'
p276
I33
sS'module'
p277
I37
sS'medical patient'
p278
I124000
sS'bodybuilding protein '
p279
I39400
sS'aids'
p280
I24500
sS'nba'
p281
I31
sS'aerobic'
p282
I17500
sS'multimedia'
p283
I7
sS'fat muscle'
p284
I100000
sS'eating weight '
p285
I244000
sS'treadmill'
p286
I16900
sS'nurse'
p287
I12200
sS'cholesterol'
p288
I397000
sS'laker'
p289
I0
sS'calories fat'
p290
I176000
sS'doctor medical'
p291
I178000
sS'ball league'
p292
I13
sS'health nutritional'
p293
I231000
sS'buffer code'
p294
I1
sS'ncaa'
p295
I22
sS'wnba'
p296
I4
sS'blood heart '
p297
I87400
sS'insulin'
p298
I10800
sS'health medicine'
p299
I240000
sS'shareware'
p300
I0
sS'agp card'
p301
I0
sS'hiv '
p302
I11900
sS'cancer'
p303
I395000
sS'carb carbs'
p304
I61700
sS'cardiology '
p305
I2630
sS'walkers'
p306
I72
sS'exercise protein '
p307
I65300
sS'championship team'
p308
I13
sS'patients treatment'
p309
I125000
sS'cancer '
p310
I395000
sS'avi file'
p311
I0
sS'perl'
p312
I6
sS'bios'
p313
I5
sS'aids '
p314
I24500
sS'array code'
p315
I7
sS'pc windows'
p316
I10
sS'calories protein '
p317
I83700
sS'dental '
p318
I15200
sS'avg nba'
p319
I5
sS'cardiology'
p320
I2630
sS'blood insulin '
p321
I31700
sS'club league'
p322
I6
sS'avg league'
p323
I0
sS'heart surgery '
p324
I42000
sS'applet code'
p325
I0
sS'walking '
p326
I17400
sS'blazers game'
p327
I1
sS'diabetes '
p328
I396000
sS'dairy milk '
p329
I41600
sS'fans football'
p330
I20900
sS'pacers'
p331
I0
sS'fitness '
p332
I394000
sS'vb'
p333
I4
sS'calories weight '
p334
I181000
sS'aspirin cardiologist '
p335
I13200
sS'cholesterol lipitor '
p336
I17900
sS'doctor health'
p337
I176000
sS'application windows'
p338
I16
sS'medical treatment'
p339
I445000
sS'aerobics'
p340
I14200
sS'ball referee'
p341
I16
sS'bytes code'
p342
I2
sS'cholesterol doctor '
p343
I178000
sS'diet'
p344
I399000
sS'hospital medical'
p345
I81500
sS'diabetes'
p346
I396000
sS'aerobic '
p347
I17500
sS'java'
p348
I68
sS'card graphics'
p349
I6
sS'cpu'
p350
I1
ss.