(dp0
S'yahoo.com'
p1
(dp2
S'fifa'
p3
I170000
sS'fat '
p4
I283000
sS'squats'
p5
I51900
sS'challenge walk '
p6
I107000
sS'compile '
p7
I25400
sS'workout '
p8
I224000
sS'boolean '
p9
I10400
sS'hospital patients'
p10
I260000
sS'laettner'
p11
I2430
sS'knicks'
p12
I114000
sS'hiv '
p13
I126000
sS'controls '
p14
I287000
sS'audio file'
p15
I208000
sS'acupuncture'
p16
I53700
sS'soccer'
p17
I2550000
sS'game league'
p18
I1940000
sS'hiv'
p19
I126000
sS'borland '
p20
I10000
sS'aspirin cholesterol '
p21
I12100
sS'rebounds'
p22
I234000
sS'acid diets '
p23
I129000
sS'perl '
p24
I15300
sS'motherboard '
p25
I45100
sS'lazio'
p26
I61100
sS'actionlistener '
p27
I1960
sS'walking '
p28
I367000
sS'teams'
p29
I1620000
sS'cholesterol'
p30
I122000
sS'api '
p31
I296000
sS'exercise weight '
p32
I177000
sS'ball team'
p33
I830000
sS'eating protein '
p34
I103000
sS'card pc'
p35
I1550000
sS'module'
p36
I136000
sS'shaq '
p37
I49800
sS'binary '
p38
I96700
sS'medical patient'
p39
I643000
sS'bodybuilding protein '
p40
I30500
sS'aids'
p41
I144000
sS'ansi '
p42
I11300
sS'aerobic'
p43
I31500
sS'bundesliga'
p44
I299000
sS'multimedia'
p45
I115000
sS'fat muscle'
p46
I77900
sS'bios controller ide '
p47
I9990
sS'eating weight '
p48
I180000
sS'treadmill'
p49
I57000
sS'nurse'
p50
I255000
sS'fitness'
p51
I785000
sS'laker'
p52
I22700
sS'calories fat'
p53
I87200
sS'leeds'
p54
I54000
sS'cpan '
p55
I3030
sS'doctor medical'
p56
I563000
sS'shaquille'
p57
I26000
sS'java'
p58
I237000
sS'health nutritional'
p59
I651000
sS'buffer code'
p60
I7690
sS'board overclocking '
p61
I11600
sS'wnba'
p62
I230000
sS'sabonis'
p63
I3770
sS'blood heart '
p64
I140000
sS'insulin'
p65
I108000
sS'health medicine'
p66
I1870000
sS'alias '
p67
I145000
sS'shareware'
p68
I11600
sS'agp card'
p69
I6570
sS'card drivers'
p70
I786000
sS'cancer'
p71
I558000
sS'carb carbs'
p72
I50300
sS'cardiology '
p73
I36000
sS'walkers'
p74
I34900
sS'exercise protein '
p75
I103000
sS'diabetes'
p76
I195000
sS'board fsb '
p77
I24600
sS'kobe'
p78
I121000
sS'championship team'
p79
I320000
sS'patients treatment'
p80
I230000
sS'cancer '
p81
I948000
sS'avi file'
p82
I311000
sS'perl'
p83
I15100
sS'bios'
p84
I63600
sS'aids '
p85
I144000
sS'array code'
p86
I31200
sS'dunks'
p87
I182000
sS'array '
p88
I102000
sS'pc windows'
p89
I1310000
sS'club league'
p90
I349000
sS'calories protein '
p91
I89600
sS'liverpool'
p92
I222000
sS'java '
p93
I238000
sS'avg nba'
p94
I603000
sS'cardiology'
p95
I36000
sS'blood insulin '
p96
I181000
sS'fsb overclocking '
p97
I6270
sS'blazers'
p98
I182000
sS'alloc '
p99
I5760
sS'avg league'
p100
I261000
sS'ball league'
p101
I1110000
sS'aerobic '
p102
I31400
sS'applet code'
p103
I15000
sS'bayern'
p104
I211000
sS'radiation treatment '
p105
I44000
sS'blazers game'
p106
I276000
sS'diabetes '
p107
I196000
sS'container '
p108
I171000
sS'dairy milk '
p109
I208000
sS'fans football'
p110
I605000
sS'mls'
p111
I724000
sS'pacers'
p112
I64900
sS'fitness '
p113
I379000
sS'applet '
p114
I10500
sS'vb'
p115
I160000
sS'ncaa'
p116
I443000
sS'calories weight '
p117
I87600
sS'aspirin cardiologist '
p118
I9390
sS'compiler '
p119
I12400
sS'dental '
p120
I316000
sS'char '
p121
I64500
sS'nba'
p122
I1920000
sS'doctor health'
p123
I1920000
sS'component '
p124
I280000
sS'application windows'
p125
I1200000
sS'eating fat'
p126
I180000
sS'medical treatment'
p127
I361000
sS'class '
p128
I1010000
sS'cholesterol lipitor '
p129
I14400
sS'cables drive floppy '
p130
I18100
sS'aerobics'
p131
I28500
sS'ball referee'
p132
I268000
sS'bytes code'
p133
I8500
sS'cholesterol doctor '
p134
I76800
sS'diet'
p135
I340000
sS'hospital medical'
p136
I1280000
sS'bios '
p137
I67300
sS'hooliganism'
p138
I4330
sS'heart surgery '
p139
I144000
sS'argument '
p140
I153000
sS'algorithms '
p141
I25600
sS'cpu'
p142
I153000
sS'code '
p143
I1420000
sS'premiership'
p144
I31700
sS'juventus'
p145
I70200
sS'card graphics'
p146
I258000
sS'uefa'
p147
I87500
ssS'diabetes.org'
p148
(dp149
S'fat '
p150
I89400
sS'squats'
p151
I68
sS'challenge walk '
p152
I67300
sS'workout '
p153
I3620
sS'hospital patients'
p154
I56600
sS'card drivers'
p155
I30700
sS'audio file'
p156
I11200
sS'acupuncture'
p157
I72
sS'soccer'
p158
I1850
sS'game league'
p159
I1990
sS'hiv'
p160
I25000
sS'aspirin cholesterol '
p161
I21200
sS'acid diets '
p162
I11000
sS'eating fat'
p163
I131000
sS'radiation treatment '
p164
I3760
sS'teams'
p165
I4740
sS'cholesterol'
p166
I32500
sS'exercise weight '
p167
I135000
sS'ball team'
p168
I100
sS'card pc'
p169
I7600
sS'module'
p170
I75
sS'medical patient'
p171
I161000
sS'bodybuilding protein '
p172
I40
sS'aids'
p173
I14400
sS'nba'
p174
I40
sS'aerobic'
p175
I6690
sS'multimedia'
p176
I42
sS'fat muscle'
p177
I7920
sS'eating weight '
p178
I137000
sS'treadmill'
p179
I3580
sS'nurse'
p180
I10100
sS'fitness'
p181
I82400
sS'laker'
p182
I5
sS'calories fat'
p183
I128000
sS'doctor medical'
p184
I88200
sS'ball league'
p185
I16
sS'health nutritional'
p186
I97600
sS'buffer code'
p187
I0
sS'ncaa'
p188
I8
sS'wnba'
p189
I16
sS'blood heart '
p190
I125000
sS'insulin'
p191
I95700
sS'health medicine'
p192
I121000
sS'shareware'
p193
I0
sS'agp card'
p194
I0
sS'hiv '
p195
I25000
sS'cancer'
p196
I20000
sS'carb carbs'
p197
I37800
sS'cardiology '
p198
I4770
sS'walkers'
p199
I3440
sS'exercise protein '
p200
I38200
sS'championship team'
p201
I23
sS'patients treatment'
p202
I139000
sS'cancer '
p203
I20000
sS'avi file'
p204
I0
sS'heart surgery '
p205
I35800
sS'perl'
p206
I6
sS'bios'
p207
I16
sS'aids '
p208
I14400
sS'array code'
p209
I5
sS'pc windows'
p210
I75
sS'calories protein '
p211
I43400
sS'dental '
p212
I49900
sS'avg nba'
p213
I5
sS'cardiology'
p214
I4770
sS'blood insulin '
p215
I59700
sS'club league'
p216
I26
sS'avg league'
p217
I1
sS'aerobic '
p218
I6690
sS'applet code'
p219
I0
sS'walking '
p220
I10800
sS'blazers game'
p221
I3
sS'diabetes '
p222
I302000
sS'dairy milk '
p223
I20800
sS'fans football'
p224
I28
sS'pacers'
p225
I8
sS'fitness '
p226
I82100
sS'vb'
p227
I19
sS'calories weight '
p228
I125000
sS'aspirin cardiologist '
p229
I21100
sS'cholesterol lipitor '
p230
I14100
sS'doctor health'
p231
I140000
sS'eating protein '
p232
I45500
sS'medical treatment'
p233
I104000
sS'aerobics'
p234
I2300
sS'ball referee'
p235
I7
sS'bytes code'
p236
I0
sS'cholesterol doctor '
p237
I33700
sS'diet'
p238
I112000
sS'hospital medical'
p239
I128000
sS'diabetes'
p240
I303000
sS'application windows'
p241
I47
sS'java'
p242
I80
sS'card graphics'
p243
I47
sS'cpu'
p244
I7
ssS'fifa.com'
p245
(dp246
S'fifa'
p247
I698000
sS'squats'
p248
I10
sS'hospital patients'
p249
I44
sS'laettner'
p250
I0
sS'knicks'
p251
I9
sS'card drivers'
p252
I45
sS'audio file'
p253
I12
sS'acupuncture'
p254
I1
sS'soccer'
p255
I488000
sS'game league'
p256
I302000
sS'hiv'
p257
I2130
sS'rebounds'
p258
I40
sS'lazio'
p259
I4130
sS'eating fat'
p260
I40
sS'teams'
p261
I447000
sS'cholesterol'
p262
I8
sS'ball team'
p263
I428000
sS'card pc'
p264
I121000
sS'module'
p265
I85400
sS'shaq '
p266
I9
sS'medical patient'
p267
I9860
sS'aids'
p268
I4620
sS'nba'
p269
I51800
sS'aerobic'
p270
I20
sS'bundesliga'
p271
I53500
sS'multimedia'
p272
I2500
sS'fat muscle'
p273
I31
sS'treadmill'
p274
I14
sS'nurse'
p275
I6370
sS'fitness'
p276
I5010
sS'laker'
p277
I2
sS'calories fat'
p278
I8
sS'leeds'
p279
I1760
sS'doctor medical'
p280
I7340
sS'shaquille'
p281
I89
sS'ball league'
p282
I326000
sS'health nutritional'
p283
I3170
sS'buffer code'
p284
I1
sS'ncaa'
p285
I74
sS'wnba'
p286
I7
sS'sabonis'
p287
I0
sS'insulin'
p288
I3
sS'health medicine'
p289
I14900
sS'shareware'
p290
I0
sS'agp card'
p291
I0
sS'cancer'
p292
I2780
sS'carb carbs'
p293
I1
sS'walkers'
p294
I11
sS'kobe'
p295
I2310
sS'championship team'
p296
I298000
sS'patients treatment'
p297
I39
sS'avi file'
p298
I0
sS'perl'
p299
I27
sS'bios'
p300
I26
sS'array code'
p301
I10
sS'dunks'
p302
I1
sS'diabetes'
p303
I87
sS'pc windows'
p304
I50
sS'liverpool'
p305
I14400
sS'avg nba'
p306
I25
sS'cardiology'
p307
I13
sS'club league'
p308
I385000
sS'blazers'
p309
I3690
sS'avg league'
p310
I23
sS'applet code'
p311
I1
sS'bayern'
p312
I22400
sS'blazers game'
p313
I4790
sS'fans football'
p314
I701000
sS'mls'
p315
I52800
sS'pacers'
p316
I10
sS'vb'
p317
I92
sS'doctor health'
p318
I13100
sS'application windows'
p319
I98800
sS'medical treatment'
p320
I12300
sS'aerobics'
p321
I1
sS'ball referee'
p322
I255000
sS'bytes code'
p323
I0
sS'diet'
p324
I14000
sS'hospital medical'
p325
I13200
sS'hooliganism'
p326
I22
sS'java'
p327
I10300
sS'cpu'
p328
I28
sS'premiership'
p329
I40200
sS'juventus'
p330
I11600
sS'card graphics'
p331
I3400
sS'uefa'
p332
I219000
ssS'health.com'
p333
(dp334
S'fat '
p335
I383000
sS'squats'
p336
I16300
sS'challenge walk '
p337
I28800
sS'workout '
p338
I400000
sS'hospital patients'
p339
I34100
sS'card drivers'
p340
I10
sS'audio file'
p341
I3
sS'acupuncture'
p342
I8950
sS'soccer'
p343
I13400
sS'game league'
p344
I51
sS'hiv'
p345
I11900
sS'aspirin cholesterol '
p346
I15300
sS'acid diets '
p347
I95300
sS'eating fat'
p348
I235000
sS'radiation treatment '
p349
I12800
sS'teams'
p350
I2940
sS'cholesterol'
p351
I397000
sS'exercise weight '
p352
I236000
sS'ball team'
p353
I86
sS'card pc'
p354
I33
sS'module'
p355
I37
sS'medical patient'
p356
I124000
sS'bodybuilding protein '
p357
I39400
sS'aids'
p358
I24500
sS'nba'
p359
I31
sS'aerobic'
p360
I17500
sS'multimedia'
p361
I7
sS'fat muscle'
p362
I100000
sS'eating weight '
p363
I244000
sS'treadmill'
p364
I16900
sS'nurse'
p365
I12200
sS'fitness'
p366
I394000
sS'laker'
p367
I0
sS'calories fat'
p368
I176000
sS'doctor medical'
p369
I178000
sS'ball league'
p370
I13
sS'health nutritional'
p371
I231000
sS'buffer code'
p372
I1
sS'ncaa'
p373
I22
sS'wnba'
p374
I4
sS'blood heart '
p375
I87400
sS'insulin'
p376
I10800
sS'health medicine'
p377
I240000
sS'shareware'
p378
I0
sS'agp card'
p379
I0
sS'hiv '
p380
I11900
sS'cancer'
p381
I395000
sS'carb carbs'
p382
I61700
sS'cardiology '
p383
I2630
sS'walkers'
p384
I72
sS'exercise protein '
p385
I65300
sS'championship team'
p386
I13
sS'patients treatment'
p387
I125000
sS'cancer '
p388
I395000
sS'avi file'
p389
I0
sS'perl'
p390
I6
sS'bios'
p391
I5
sS'aids '
p392
I24500
sS'array code'
p393
I7
sS'pc windows'
p394
I10
sS'calories protein '
p395
I83700
sS'dental '
p396
I15200
sS'avg nba'
p397
I5
sS'cardiology'
p398
I2630
sS'blood insulin '
p399
I31700
sS'aerobic '
p400
I17500
sS'club league'
p401
I6
sS'avg league'
p402
I0
sS'heart surgery '
p403
I42000
sS'applet code'
p404
I0
sS'walking '
p405
I17400
sS'blazers game'
p406
I1
sS'diabetes '
p407
I396000
sS'dairy milk '
p408
I41600
sS'fans football'
p409
I20900
sS'pacers'
p410
I0
sS'fitness '
p411
I394000
sS'vb'
p412
I4
sS'calories weight '
p413
I181000
sS'aspirin cardiologist '
p414
I13200
sS'cholesterol lipitor '
p415
I17900
sS'doctor health'
p416
I176000
sS'application windows'
p417
I16
sS'medical treatment'
p418
I445000
sS'aerobics'
p419
I14200
sS'ball referee'
p420
I16
sS'bytes code'
p421
I2
sS'cholesterol doctor '
p422
I178000
sS'diet'
p423
I399000
sS'hospital medical'
p424
I81500
sS'diabetes'
p425
I396000
sS'eating protein '
p426
I164000
sS'java'
p427
I68
sS'card graphics'
p428
I6
sS'cpu'
p429
I1
ss.