(dp0
S'diabetes.org'
p1
(dp2
S'fat '
p3
I89400
sS'squats'
p4
I68
sS'challenge walk '
p5
I67300
sS'workout '
p6
I3620
sS'hospital patients'
p7
I56600
sS'card drivers'
p8
I30700
sS'audio file'
p9
I11200
sS'acupuncture'
p10
I72
sS'soccer'
p11
I1850
sS'game league'
p12
I1990
sS'hiv'
p13
I25000
sS'aspirin cholesterol '
p14
I21200
sS'acid diets '
p15
I11000
sS'eating fat'
p16
I131000
sS'radiation treatment '
p17
I3760
sS'teams'
p18
I4740
sS'cholesterol'
p19
I32500
sS'exercise weight '
p20
I135000
sS'ball team'
p21
I100
sS'card pc'
p22
I7600
sS'module'
p23
I75
sS'medical patient'
p24
I161000
sS'bodybuilding protein '
p25
I40
sS'aids'
p26
I14400
sS'nba'
p27
I40
sS'aerobic'
p28
I6690
sS'multimedia'
p29
I42
sS'fat muscle'
p30
I7920
sS'eating weight '
p31
I137000
sS'treadmill'
p32
I3580
sS'nurse'
p33
I10100
sS'fitness'
p34
I82400
sS'laker'
p35
I5
sS'calories fat'
p36
I128000
sS'doctor medical'
p37
I88200
sS'ball league'
p38
I16
sS'health nutritional'
p39
I97600
sS'buffer code'
p40
I0
sS'ncaa'
p41
I8
sS'wnba'
p42
I16
sS'blood heart '
p43
I125000
sS'insulin'
p44
I95700
sS'health medicine'
p45
I121000
sS'shareware'
p46
I0
sS'agp card'
p47
I0
sS'hiv '
p48
I25000
sS'cancer'
p49
I20000
sS'carb carbs'
p50
I37800
sS'cardiology '
p51
I4770
sS'walkers'
p52
I3440
sS'exercise protein '
p53
I38200
sS'championship team'
p54
I23
sS'patients treatment'
p55
I139000
sS'cancer '
p56
I20000
sS'avi file'
p57
I0
sS'heart surgery '
p58
I35800
sS'perl'
p59
I6
sS'bios'
p60
I16
sS'aids '
p61
I14400
sS'array code'
p62
I5
sS'pc windows'
p63
I75
sS'calories protein '
p64
I43400
sS'dental '
p65
I49900
sS'avg nba'
p66
I5
sS'cardiology'
p67
I4770
sS'blood insulin '
p68
I59700
sS'club league'
p69
I26
sS'avg league'
p70
I1
sS'aerobic '
p71
I6690
sS'applet code'
p72
I0
sS'walking '
p73
I10800
sS'blazers game'
p74
I3
sS'diabetes '
p75
I302000
sS'dairy milk '
p76
I20800
sS'fans football'
p77
I28
sS'pacers'
p78
I8
sS'fitness '
p79
I82100
sS'vb'
p80
I19
sS'calories weight '
p81
I125000
sS'aspirin cardiologist '
p82
I21100
sS'cholesterol lipitor '
p83
I14100
sS'doctor health'
p84
I140000
sS'application windows'
p85
I47
sS'medical treatment'
p86
I104000
sS'aerobics'
p87
I2300
sS'ball referee'
p88
I7
sS'bytes code'
p89
I0
sS'cholesterol doctor '
p90
I33700
sS'diet'
p91
I112000
sS'hospital medical'
p92
I128000
sS'diabetes'
p93
I303000
sS'eating protein '
p94
I45500
sS'java'
p95
I80
sS'card graphics'
p96
I47
sS'cpu'
p97
I7
ssS'fifa.com'
p98
(dp99
S'fifa'
p100
I698000
sS'squats'
p101
I10
sS'hospital patients'
p102
I44
sS'laettner'
p103
I0
sS'knicks'
p104
I9
sS'card drivers'
p105
I45
sS'audio file'
p106
I12
sS'acupuncture'
p107
I1
sS'soccer'
p108
I488000
sS'game league'
p109
I302000
sS'hiv'
p110
I2130
sS'rebounds'
p111
I40
sS'lazio'
p112
I4130
sS'eating fat'
p113
I40
sS'teams'
p114
I447000
sS'cholesterol'
p115
I8
sS'ball team'
p116
I428000
sS'card pc'
p117
I121000
sS'module'
p118
I85400
sS'shaq '
p119
I9
sS'medical patient'
p120
I9860
sS'aids'
p121
I4620
sS'nba'
p122
I51800
sS'aerobic'
p123
I20
sS'bundesliga'
p124
I53500
sS'multimedia'
p125
I2500
sS'fat muscle'
p126
I31
sS'treadmill'
p127
I14
sS'nurse'
p128
I6370
sS'fitness'
p129
I5010
sS'laker'
p130
I2
sS'calories fat'
p131
I8
sS'leeds'
p132
I1760
sS'doctor medical'
p133
I7340
sS'shaquille'
p134
I89
sS'ball league'
p135
I326000
sS'health nutritional'
p136
I3170
sS'buffer code'
p137
I1
sS'ncaa'
p138
I74
sS'wnba'
p139
I7
sS'sabonis'
p140
I0
sS'insulin'
p141
I3
sS'health medicine'
p142
I14900
sS'shareware'
p143
I0
sS'agp card'
p144
I0
sS'cancer'
p145
I2780
sS'carb carbs'
p146
I1
sS'walkers'
p147
I11
sS'kobe'
p148
I2310
sS'championship team'
p149
I298000
sS'patients treatment'
p150
I39
sS'avi file'
p151
I0
sS'perl'
p152
I27
sS'bios'
p153
I26
sS'array code'
p154
I10
sS'dunks'
p155
I1
sS'diabetes'
p156
I87
sS'pc windows'
p157
I50
sS'liverpool'
p158
I14400
sS'avg nba'
p159
I25
sS'cardiology'
p160
I13
sS'club league'
p161
I385000
sS'blazers'
p162
I3690
sS'avg league'
p163
I23
sS'applet code'
p164
I1
sS'bayern'
p165
I22400
sS'blazers game'
p166
I4790
sS'fans football'
p167
I701000
sS'mls'
p168
I52800
sS'pacers'
p169
I10
sS'vb'
p170
I92
sS'doctor health'
p171
I13100
sS'application windows'
p172
I98800
sS'medical treatment'
p173
I12300
sS'aerobics'
p174
I1
sS'ball referee'
p175
I255000
sS'bytes code'
p176
I0
sS'diet'
p177
I14000
sS'hospital medical'
p178
I13200
sS'hooliganism'
p179
I22
sS'java'
p180
I10300
sS'cpu'
p181
I28
sS'premiership'
p182
I40200
sS'juventus'
p183
I11600
sS'card graphics'
p184
I3400
sS'uefa'
p185
I219000
ssS'health.com'
p186
(dp187
S'fat '
p188
I383000
sS'squats'
p189
I16300
sS'challenge walk '
p190
I28800
sS'workout '
p191
I400000
sS'hospital patients'
p192
I34100
sS'card drivers'
p193
I10
sS'audio file'
p194
I3
sS'acupuncture'
p195
I8950
sS'soccer'
p196
I13400
sS'game league'
p197
I51
sS'hiv'
p198
I11900
sS'aspirin cholesterol '
p199
I15300
sS'acid diets '
p200
I95300
sS'eating fat'
p201
I235000
sS'radiation treatment '
p202
I12800
sS'teams'
p203
I2940
sS'cholesterol'
p204
I397000
sS'exercise weight '
p205
I236000
sS'ball team'
p206
I86
sS'card pc'
p207
I33
sS'module'
p208
I37
sS'medical patient'
p209
I124000
sS'bodybuilding protein '
p210
I39400
sS'aids'
p211
I24500
sS'nba'
p212
I31
sS'aerobic'
p213
I17500
sS'multimedia'
p214
I7
sS'fat muscle'
p215
I100000
sS'eating weight '
p216
I244000
sS'treadmill'
p217
I16900
sS'nurse'
p218
I12200
sS'fitness'
p219
I394000
sS'laker'
p220
I0
sS'calories fat'
p221
I176000
sS'doctor medical'
p222
I178000
sS'ball league'
p223
I13
sS'health nutritional'
p224
I231000
sS'buffer code'
p225
I1
sS'ncaa'
p226
I22
sS'wnba'
p227
I4
sS'blood heart '
p228
I87400
sS'insulin'
p229
I10800
sS'health medicine'
p230
I240000
sS'shareware'
p231
I0
sS'agp card'
p232
I0
sS'hiv '
p233
I11900
sS'cancer'
p234
I395000
sS'carb carbs'
p235
I61700
sS'cardiology '
p236
I2630
sS'walkers'
p237
I72
sS'exercise protein '
p238
I65300
sS'championship team'
p239
I13
sS'patients treatment'
p240
I125000
sS'cancer '
p241
I395000
sS'avi file'
p242
I0
sS'perl'
p243
I6
sS'bios'
p244
I5
sS'aids '
p245
I24500
sS'array code'
p246
I7
sS'pc windows'
p247
I10
sS'calories protein '
p248
I83700
sS'dental '
p249
I15200
sS'avg nba'
p250
I5
sS'cardiology'
p251
I2630
sS'blood insulin '
p252
I31700
sS'aerobic '
p253
I17500
sS'club league'
p254
I6
sS'avg league'
p255
I0
sS'heart surgery '
p256
I42000
sS'applet code'
p257
I0
sS'walking '
p258
I17400
sS'blazers game'
p259
I1
sS'diabetes '
p260
I396000
sS'dairy milk '
p261
I41600
sS'fans football'
p262
I20900
sS'pacers'
p263
I0
sS'fitness '
p264
I394000
sS'vb'
p265
I4
sS'calories weight '
p266
I181000
sS'aspirin cardiologist '
p267
I13200
sS'cholesterol lipitor '
p268
I17900
sS'doctor health'
p269
I176000
sS'eating protein '
p270
I164000
sS'medical treatment'
p271
I445000
sS'aerobics'
p272
I14200
sS'ball referee'
p273
I16
sS'bytes code'
p274
I2
sS'cholesterol doctor '
p275
I178000
sS'diet'
p276
I399000
sS'hospital medical'
p277
I81500
sS'diabetes'
p278
I396000
sS'application windows'
p279
I16
sS'java'
p280
I68
sS'card graphics'
p281
I6
sS'cpu'
p282
I1
ss.